target datalayout = "e-m:e-p270:32:32-p271:32:32-p272:64:64-i64:64-i128:128-f80:128-n8:16:32:64-S128"
target triple = "x86_64-pc-linux-gnu"

%struct._packet_info = type { ptr, ptr, i32, i32, %struct.nstime_t, %struct.nstime_t, %struct.nstime_t, i8, ptr, ptr, ptr, ptr, %struct._address, %struct._address, %struct._address, %struct._address, %struct._address, %struct._address, i32, ptr, i8, [3 x i8], %struct.anon, i32, i32, i32, i32, ptr, i8, ptr, ptr, i16, i16, i32, i32, i16, i32, i32, ptr, ptr, ptr, i8, i8, i16, i16, i16, i32, i16, i16, ptr, ptr, ptr, ptr, ptr, i32, i32 }
%struct.nstime_t = type { i64, i32 }
%struct._address = type { i32, i32, ptr, ptr }
%struct.anon = type { i8, [3 x i8] }

@hf_sua_info_string = internal global i32 0, align 4
@sua_info_str_handle = internal global ptr null, align 8
@.str.445 = private unnamed_addr constant [6 x i8] c" (%s)\00", align 1

; Function Attrs: null_pointer_is_valid sspstrong uwtable
define internal void @dissect_info_string_parameter(ptr noundef %0, ptr noundef %1, ptr noundef %2, ptr noundef %3) #0 {
  %5 = alloca ptr, align 8
  %6 = alloca ptr, align 8
  %7 = alloca ptr, align 8
  %8 = alloca ptr, align 8
  %9 = alloca i16, align 2
  %10 = alloca ptr, align 8
  %11 = alloca i32, align 4
  store ptr %0, ptr %5, align 8
  store ptr %1, ptr %6, align 8
  store ptr %2, ptr %7, align 8
  store ptr %3, ptr %8, align 8
  call void @llvm.lifetime.start.p0(i64 2, ptr %9) #6
  call void @llvm.lifetime.start.p0(i64 8, ptr %10) #6
  %12 = load ptr, ptr %5, align 8
  %13 = call zeroext i16 @tvb_get_ntohs(ptr noundef %12, i32 noundef 2)
  %14 = zext i16 %13 to i32
  %15 = sub i32 %14, 4
  %16 = trunc i32 %15 to i16
  store i16 %16, ptr %9, align 2
  %17 = load ptr, ptr @sua_info_str_handle, align 8
  %18 = icmp ne ptr %17, null
  br i1 %18, label %19, label %29

19:                                               ; preds = %4
  %20 = load ptr, ptr %5, align 8
  %21 = load i16, ptr %9, align 2
  %22 = zext i16 %21 to i32
  %23 = call ptr @tvb_new_subset_length(ptr noundef %20, i32 noundef 4, i32 noundef %22)
  store ptr %23, ptr %10, align 8
  %24 = load ptr, ptr @sua_info_str_handle, align 8
  %25 = load ptr, ptr %10, align 8
  %26 = load ptr, ptr %6, align 8
  %27 = load ptr, ptr %7, align 8
  %28 = call i32 @call_dissector(ptr noundef %24, ptr noundef %25, ptr noundef %26, ptr noundef %27)
  store i32 1, ptr %11, align 4
  br label %44

29:                                               ; preds = %4
  %30 = load ptr, ptr %7, align 8
  %31 = load i32, ptr @hf_sua_info_string, align 4
  %32 = load ptr, ptr %5, align 8
  %33 = load i16, ptr %9, align 2
  %34 = zext i16 %33 to i32
  %35 = call ptr @proto_tree_add_item(ptr noundef %30, i32 noundef %31, ptr noundef %32, i32 noundef 4, i32 noundef %34, i32 noundef 2)
  %36 = load ptr, ptr %8, align 8
  %37 = load ptr, ptr %6, align 8
  %38 = getelementptr inbounds nuw %struct._packet_info, ptr %37, i32 0, i32 51
  %39 = load ptr, ptr %38, align 8
  %40 = load ptr, ptr %5, align 8
  %41 = load i16, ptr %9, align 2
  %42 = zext i16 %41 to i32
  %43 = call ptr @tvb_format_text(ptr noundef %39, ptr noundef %40, i32 noundef 4, i32 noundef %42)
  call void (ptr, ptr, ...) @proto_item_append_text(ptr noundef %36, ptr noundef @.str.445, ptr noundef %43)
  store i32 0, ptr %11, align 4
  br label %44

44:                                               ; preds = %29, %19
  call void @llvm.lifetime.end.p0(i64 8, ptr %10) #6
  call void @llvm.lifetime.end.p0(i64 2, ptr %9) #6
  %45 = load i32, ptr %11, align 4
  switch i32 %45, label %47 [
    i32 0, label %46
    i32 1, label %46
  ]

46:                                               ; preds = %44, %44
  ret void

47:                                               ; preds = %44
  unreachable
}