; Function Attrs: null_pointer_is_valid sspstrong uwtable
define internal fastcc void @dissect_info_string_parameter(ptr noundef %0, ptr noundef %1, ptr noundef %2, ptr noundef %3) unnamed_addr #0 {
  %5 = tail call zeroext i16 @tvb_get_ntohs(ptr noundef %0, i32 noundef 2)
  %6 = add i16 %5, -4
  %7 = load ptr, ptr @sua_info_str_handle, align 8
  %.not = icmp eq ptr %7, null
  br i1 %.not, label %13, label %8

8:                                                ; preds = %4
  %9 = zext i16 %6 to i32
  %10 = tail call ptr @tvb_new_subset_length(ptr noundef %0, i32 noundef 4, i32 noundef %9)
  %11 = load ptr, ptr @sua_info_str_handle, align 8
  %12 = tail call i32 @call_dissector(ptr noundef %11, ptr noundef %10, ptr noundef %1, ptr noundef %2)
  br label %20

13:                                               ; preds = %4
  %14 = load i32, ptr @hf_sua_info_string, align 4
  %15 = zext i16 %6 to i32
  %16 = tail call ptr @proto_tree_add_item(ptr noundef %2, i32 noundef %14, ptr noundef %0, i32 noundef 4, i32 noundef %15, i32 noundef 2)
  %17 = getelementptr inbounds nuw i8, ptr %1, i64 408
  %18 = load ptr, ptr %17, align 8
  %19 = tail call ptr @tvb_format_text(ptr noundef %18, ptr noundef %0, i32 noundef 4, i32 noundef %15)
  tail call void (ptr, ptr, ...) @proto_item_append_text(ptr noundef %3, ptr noundef nonnull @.str.445, ptr noundef %19)
  br label %20

20:                                               ; preds = %13, %8
  ret void
}